target datalayout = "e-m:e-p270:32:32-p271:32:32-p272:64:64-i64:64-i128:128-f80:128-n8:16:32:64-S128"
target triple = "x86_64-pc-linux-gnu"

%struct.MPVUnquantDSPContext = type { ptr, ptr, ptr, ptr, ptr, ptr }
%struct.AVCodecContext = type { ptr, i32, i32, ptr, i32, i32, ptr, ptr, ptr, i64, i32, i32, ptr, i32, %struct.AVRational, %struct.AVRational, %struct.AVRational, i32, i32, i32, i32, i32, %struct.AVRational, i32, i32, i32, i32, i32, i32, i32, i32, i32, i32, i32, ptr, ptr, i32, float, float, float, float, float, float, float, float, float, i32, i32, i32, i32, i32, i32, i32, i32, i32, i32, i32, i32, ptr, ptr, ptr, i32, i32, i32, i32, i32, i32, i32, i32, i32, i32, %struct.AVChannelLayout, i32, i32, i32, i32, i32, i32, i32, i32, ptr, i32, i32, i32, float, float, i32, i32, i32, i32, i32, ptr, i64, i64, float, float, i32, i32, ptr, ptr, i32, i32, i32, i32, i32, ptr, ptr, ptr, ptr, i32, i32, [8 x i64], i32, i32, i32, i32, i32, i32, i32, ptr, ptr, i32, i32, i32, i32, i32, i32, i32, i32, i32, i32, ptr, ptr, i32, i32, ptr, ptr, ptr, ptr, i32, i32, i64, i32, i32, i64, ptr, i64, ptr, i32, ptr, i32 }
%struct.AVRational = type { i32, i32 }
%struct.AVChannelLayout = type { i32, i32, %union.anon, ptr }
%union.anon = type { i64 }
%struct.MpegEncContext = type { ptr, i32, i32, i32, [12 x i32], i32, %struct.ScanTable, %struct.ScanTable, [64 x i8], [64 x i8], ptr, ptr, i32, i32, i32, i32, i32, i32, i32, i32, i32, i32, i32, i32, i32, i32, i32, i32, i32, i32, i32, i32, i64, i64, ptr, %struct.BufferPoolContext, i32, i32, %union.anon.0, i32, %struct.MPVWorkPicture, %struct.MPVWorkPicture, %struct.MPVWorkPicture, i32, [3 x i32], ptr, [3 x ptr], ptr, ptr, ptr, ptr, ptr, ptr, [3 x ptr], i32, ptr, ptr, ptr, ptr, %struct.ScratchpadContext, i32, i32, i32, i32, i32, i32, %struct.BlockDSPContext, %struct.H264ChromaContext, %struct.HpelDSPContext, %struct.IDCTDSPContext, %struct.QpelDSPContext, %struct.VideoDSPContext, %struct.H263DSPContext, ptr, [2 x [2 x ptr]], i32, i32, [2 x [4 x [2 x i32]]], [2 x [2 x i32]], [2 x [2 x [2 x i32]]], [2 x [64 x i16]], i32, i32, i32, i32, i32, [6 x i32], [6 x i32], [3 x ptr], ptr, [64 x i16], [64 x i16], [64 x i16], [64 x i16], i32, i32, %struct.GetBitContext, i32, i32, i32, i32, i32, i32, i32, i32, i32, i32, i32, i32, i32, i32, i32, i64, i64, i16, i16, i16, i16, i32, i32, i32, i32, i32, i32, i32, i32, i32, [3 x i32], i32, i32, i32, i32, i32, i32, %struct.GetBitContext, i32, [2 x [2 x i32]], i32, i32, i32, i32, i32, i32, i32, i32, i32, i32, i32, i32, i32, i32, [2 x i32], i32, i32, ptr, ptr, ptr, ptr, ptr, i32, i32, %struct.ERContext }
%struct.ScanTable = type { ptr, [64 x i8], [64 x i8] }
%struct.BufferPoolContext = type { ptr, ptr, ptr, ptr, ptr, i32, i32, i32 }
%union.anon.0 = type { [32 x ptr] }
%struct.MPVWorkPicture = type { [3 x ptr], [3 x i64], ptr, ptr, [2 x ptr], ptr, ptr, [2 x ptr], i32 }
%struct.ScratchpadContext = type { ptr, ptr, %union.anon.1, i32 }
%union.anon.1 = type { ptr }
%struct.BlockDSPContext = type { ptr, ptr, [2 x ptr] }
%struct.H264ChromaContext = type { [4 x ptr], [4 x ptr] }
%struct.HpelDSPContext = type { [4 x [4 x ptr]], [4 x [4 x ptr]], [4 x [4 x ptr]], [4 x ptr] }
%struct.IDCTDSPContext = type { ptr, ptr, ptr, ptr, ptr, ptr, [64 x i8], i32, i32 }
%struct.QpelDSPContext = type { [2 x [16 x ptr]], [2 x [16 x ptr]], [2 x [16 x ptr]] }
%struct.VideoDSPContext = type { ptr, ptr }
%struct.H263DSPContext = type { ptr, ptr }
%struct.GetBitContext = type { ptr, ptr, i32, i32, i32 }
%struct.ERContext = type { ptr, ptr, i32, ptr, i32, i32, i32, i64, i64, i32, i32, ptr, ptr, [3 x ptr], ptr, ptr, [2 x [4 x [2 x i32]]], %struct.ERPicture, %struct.ERPicture, %struct.ERPicture, [2 x ptr], [2 x ptr], i16, i16, i32, i32, ptr, ptr }
%struct.ERPicture = type { ptr, ptr, ptr, [2 x ptr], [2 x ptr], ptr, i32 }
%struct.AVCodec = type { ptr, ptr, i32, i32, i32, i8, ptr, ptr, ptr, ptr, ptr, ptr, ptr, ptr }

@ff_mpeg12_dc_scale_table = external hidden constant [4 x [32 x i8]], align 16
@.str = private unnamed_addr constant [22 x i8] c"Unsupported codec %d\0A\00", align 1
@.str.1 = private unnamed_addr constant [5 x i8] c"L263\00", align 1
@.str.2 = private unnamed_addr constant [5 x i8] c"S263\00", align 1

; Function Attrs: cold nounwind optsize uwtable
define i32 @ff_h263_decode_init(ptr noundef %0) #0 {
  %2 = alloca i32, align 4
  %3 = alloca ptr, align 8
  %4 = alloca ptr, align 8
  %5 = alloca %struct.MPVUnquantDSPContext, align 8
  %6 = alloca i32, align 4
  %7 = alloca i32, align 4
  store ptr %0, ptr %3, align 8, !tbaa !4
  call void @llvm.lifetime.start.p0(i64 8, ptr %4) #9
  %8 = load ptr, ptr %3, align 8, !tbaa !4
  %9 = getelementptr inbounds nuw %struct.AVCodecContext, ptr %8, i32 0, i32 6
  %10 = load ptr, ptr %9, align 8, !tbaa !9
  store ptr %10, ptr %4, align 8, !tbaa !29
  call void @llvm.lifetime.start.p0(i64 48, ptr %5) #9
  call void @llvm.lifetime.start.p0(i64 4, ptr %6) #9
  %11 = load ptr, ptr %4, align 8, !tbaa !29
  %12 = getelementptr inbounds nuw %struct.MpegEncContext, ptr %11, i32 0, i32 14
  store i32 2, ptr %12, align 8, !tbaa !31
  %13 = load ptr, ptr %4, align 8, !tbaa !29
  %14 = load ptr, ptr %3, align 8, !tbaa !4
  %15 = call i32 @ff_mpv_decode_init(ptr noundef %13, ptr noundef %14)
  store i32 %15, ptr %6, align 4, !tbaa !53
  %16 = load i32, ptr %6, align 4, !tbaa !53
  %17 = icmp slt i32 %16, 0
  br i1 %17, label %18, label %20

18:                                               ; preds = %1
  %19 = load i32, ptr %6, align 4, !tbaa !53
  store i32 %19, ptr %2, align 4
  store i32 1, ptr %7, align 4
  br label %149

20:                                               ; preds = %1
  %21 = load ptr, ptr %4, align 8, !tbaa !29
  %22 = getelementptr inbounds nuw %struct.MpegEncContext, ptr %21, i32 0, i32 156
  store ptr @ff_h263_decode_mb, ptr %22, align 8, !tbaa !54
  %23 = load ptr, ptr %4, align 8, !tbaa !29
  %24 = getelementptr inbounds nuw %struct.MpegEncContext, ptr %23, i32 0, i32 122
  store i32 1, ptr %24, align 8, !tbaa !55
  %25 = load ptr, ptr %4, align 8, !tbaa !29
  %26 = getelementptr inbounds nuw %struct.MpegEncContext, ptr %25, i32 0, i32 48
  store ptr @ff_mpeg12_dc_scale_table, ptr %26, align 8, !tbaa !56
  %27 = load ptr, ptr %4, align 8, !tbaa !29
  %28 = getelementptr inbounds nuw %struct.MpegEncContext, ptr %27, i32 0, i32 47
  store ptr @ff_mpeg12_dc_scale_table, ptr %28, align 8, !tbaa !57
  %29 = load ptr, ptr %3, align 8, !tbaa !4
  %30 = getelementptr inbounds nuw %struct.AVCodecContext, ptr %29, i32 0, i32 10
  %31 = load i32, ptr %30, align 8, !tbaa !58
  %32 = and i32 %31, 8388608
  call void @ff_mpv_unquantize_init(ptr noundef %5, i32 noundef %32)
  %33 = getelementptr inbounds nuw %struct.MPVUnquantDSPContext, ptr %5, i32 0, i32 4
  %34 = load ptr, ptr %33, align 8, !tbaa !59
  %35 = load ptr, ptr %4, align 8, !tbaa !29
  %36 = getelementptr inbounds nuw %struct.MpegEncContext, ptr %35, i32 0, i32 157
  store ptr %34, ptr %36, align 8, !tbaa !61
  %37 = getelementptr inbounds nuw %struct.MPVUnquantDSPContext, ptr %5, i32 0, i32 5
  %38 = load ptr, ptr %37, align 8, !tbaa !62
  %39 = load ptr, ptr %4, align 8, !tbaa !29
  %40 = getelementptr inbounds nuw %struct.MpegEncContext, ptr %39, i32 0, i32 158
  store ptr %38, ptr %40, align 8, !tbaa !63
  %41 = load ptr, ptr %3, align 8, !tbaa !4
  %42 = getelementptr inbounds nuw %struct.AVCodecContext, ptr %41, i32 0, i32 3
  %43 = load ptr, ptr %42, align 8, !tbaa !64
  %44 = getelementptr inbounds nuw %struct.AVCodec, ptr %43, i32 0, i32 3
  %45 = load i32, ptr %44, align 4, !tbaa !65
  switch i32 %45, label %78 [
    i32 4, label %46
    i32 19, label %46
    i32 12, label %85
    i32 14, label %49
    i32 15, label %54
    i32 16, label %59
    i32 17, label %64
    i32 18, label %69
    i32 20, label %74
    i32 5, label %74
    i32 6, label %74
    i32 21, label %75
  ]

46:                                               ; preds = %20, %20
  %47 = load ptr, ptr %3, align 8, !tbaa !4
  %48 = getelementptr inbounds nuw %struct.AVCodecContext, ptr %47, i32 0, i32 29
  store i32 2, ptr %48, align 8, !tbaa !70
  br label %85

49:                                               ; preds = %20
  %50 = load ptr, ptr %4, align 8, !tbaa !29
  %51 = getelementptr inbounds nuw %struct.MpegEncContext, ptr %50, i32 0, i32 15
  store i32 1, ptr %51, align 4, !tbaa !71
  %52 = load ptr, ptr %4, align 8, !tbaa !29
  %53 = getelementptr inbounds nuw %struct.MpegEncContext, ptr %52, i32 0, i32 131
  store i32 1, ptr %53, align 4, !tbaa !72
  br label %85

54:                                               ; preds = %20
  %55 = load ptr, ptr %4, align 8, !tbaa !29
  %56 = getelementptr inbounds nuw %struct.MpegEncContext, ptr %55, i32 0, i32 15
  store i32 1, ptr %56, align 4, !tbaa !71
  %57 = load ptr, ptr %4, align 8, !tbaa !29
  %58 = getelementptr inbounds nuw %struct.MpegEncContext, ptr %57, i32 0, i32 131
  store i32 2, ptr %58, align 4, !tbaa !72
  br label %85

59:                                               ; preds = %20
  %60 = load ptr, ptr %4, align 8, !tbaa !29
  %61 = getelementptr inbounds nuw %struct.MpegEncContext, ptr %60, i32 0, i32 15
  store i32 1, ptr %61, align 4, !tbaa !71
  %62 = load ptr, ptr %4, align 8, !tbaa !29
  %63 = getelementptr inbounds nuw %struct.MpegEncContext, ptr %62, i32 0, i32 131
  store i32 3, ptr %63, align 4, !tbaa !72
  br label %85

64:                                               ; preds = %20
  %65 = load ptr, ptr %4, align 8, !tbaa !29
  %66 = getelementptr inbounds nuw %struct.MpegEncContext, ptr %65, i32 0, i32 15
  store i32 1, ptr %66, align 4, !tbaa !71
  %67 = load ptr, ptr %4, align 8, !tbaa !29
  %68 = getelementptr inbounds nuw %struct.MpegEncContext, ptr %67, i32 0, i32 131
  store i32 4, ptr %68, align 4, !tbaa !72
  br label %85

69:                                               ; preds = %20
  %70 = load ptr, ptr %4, align 8, !tbaa !29
  %71 = getelementptr inbounds nuw %struct.MpegEncContext, ptr %70, i32 0, i32 15
  store i32 1, ptr %71, align 4, !tbaa !71
  %72 = load ptr, ptr %4, align 8, !tbaa !29
  %73 = getelementptr inbounds nuw %struct.MpegEncContext, ptr %72, i32 0, i32 131
  store i32 5, ptr %73, align 4, !tbaa !72
  br label %85

74:                                               ; preds = %20, %20, %20
  br label %85

75:                                               ; preds = %20
  %76 = load ptr, ptr %4, align 8, !tbaa !29
  %77 = getelementptr inbounds nuw %struct.MpegEncContext, ptr %76, i32 0, i32 18
  store i32 1, ptr %77, align 8, !tbaa !73
  br label %85

78:                                               ; preds = %20
  %79 = load ptr, ptr %3, align 8, !tbaa !4
  %80 = load ptr, ptr %3, align 8, !tbaa !4
  %81 = getelementptr inbounds nuw %struct.AVCodecContext, ptr %80, i32 0, i32 3
  %82 = load ptr, ptr %81, align 8, !tbaa !64
  %83 = getelementptr inbounds nuw %struct.AVCodec, ptr %82, i32 0, i32 3
  %84 = load i32, ptr %83, align 4, !tbaa !65
  call void (ptr, i32, ptr, ...) @av_log(ptr noundef %79, i32 noundef 16, ptr noundef @.str, i32 noundef %84)
  store i32 -38, ptr %2, align 4
  store i32 1, ptr %7, align 4
  br label %149

85:                                               ; preds = %75, %74, %20, %69, %64, %59, %54, %49, %46
  %86 = load ptr, ptr %3, align 8, !tbaa !4
  %87 = getelementptr inbounds nuw %struct.AVCodecContext, ptr %86, i32 0, i32 5
  %88 = load i32, ptr %87, align 4, !tbaa !74
  %89 = load i32, ptr @.str.1, align 1, !tbaa !75
  %90 = icmp eq i32 %88, %89
  br i1 %90, label %97, label %91

91:                                               ; preds = %85
  %92 = load ptr, ptr %3, align 8, !tbaa !4
  %93 = getelementptr inbounds nuw %struct.AVCodecContext, ptr %92, i32 0, i32 5
  %94 = load i32, ptr %93, align 4, !tbaa !74
  %95 = load i32, ptr @.str.2, align 1, !tbaa !75
  %96 = icmp eq i32 %94, %95
  br i1 %96, label %97, label %114

97:                                               ; preds = %91, %85
  %98 = load ptr, ptr %3, align 8, !tbaa !4
  %99 = getelementptr inbounds nuw %struct.AVCodecContext, ptr %98, i32 0, i32 13
  %100 = load i32, ptr %99, align 8, !tbaa !76
  %101 = icmp eq i32 %100, 56
  br i1 %101, label %102, label %113

102:                                              ; preds = %97
  %103 = load ptr, ptr %3, align 8, !tbaa !4
  %104 = getelementptr inbounds nuw %struct.AVCodecContext, ptr %103, i32 0, i32 12
  %105 = load ptr, ptr %104, align 8, !tbaa !77
  %106 = getelementptr inbounds i8, ptr %105, i64 0
  %107 = load i8, ptr %106, align 1, !tbaa !75
  %108 = zext i8 %107 to i32
  %109 = icmp eq i32 %108, 1
  br i1 %109, label %110, label %113

110:                                              ; preds = %102
  %111 = load ptr, ptr %4, align 8, !tbaa !29
  %112 = getelementptr inbounds nuw %struct.MpegEncContext, ptr %111, i32 0, i32 100
  store i32 1, ptr %112, align 4, !tbaa !78
  br label %113

113:                                              ; preds = %110, %102, %97
  br label %114

114:                                              ; preds = %113, %91
  %115 = load ptr, ptr %3, align 8, !tbaa !4
  %116 = getelementptr inbounds nuw %struct.AVCodecContext, ptr %115, i32 0, i32 3
  %117 = load ptr, ptr %116, align 8, !tbaa !64
  %118 = getelementptr inbounds nuw %struct.AVCodec, ptr %117, i32 0, i32 3
  %119 = load i32, ptr %118, align 4, !tbaa !65
  %120 = icmp ne i32 %119, 4
  br i1 %120, label %121, label %146

121:                                              ; preds = %114
  %122 = load ptr, ptr %3, align 8, !tbaa !4
  %123 = getelementptr inbounds nuw %struct.AVCodecContext, ptr %122, i32 0, i32 3
  %124 = load ptr, ptr %123, align 8, !tbaa !64
  %125 = getelementptr inbounds nuw %struct.AVCodec, ptr %124, i32 0, i32 3
  %126 = load i32, ptr %125, align 4, !tbaa !65
  %127 = icmp ne i32 %126, 19
  br i1 %127, label %128, label %146

128:                                              ; preds = %121
  %129 = load ptr, ptr %3, align 8, !tbaa !4
  %130 = getelementptr inbounds nuw %struct.AVCodecContext, ptr %129, i32 0, i32 3
  %131 = load ptr, ptr %130, align 8, !tbaa !64
  %132 = getelementptr inbounds nuw %struct.AVCodec, ptr %131, i32 0, i32 3
  %133 = load i32, ptr %132, align 4, !tbaa !65
  %134 = icmp ne i32 %133, 12
  br i1 %134, label %135, label %146

135:                                              ; preds = %128
  %136 = load ptr, ptr %3, align 8, !tbaa !4
  %137 = call i32 @h263_get_format(ptr noundef %136)
  %138 = load ptr, ptr %3, align 8, !tbaa !4
  %139 = getelementptr inbounds nuw %struct.AVCodecContext, ptr %138, i32 0, i32 23
  store i32 %137, ptr %139, align 8, !tbaa !79
  %140 = load ptr, ptr %4, align 8, !tbaa !29
  %141 = call i32 @ff_mpv_common_init(ptr noundef %140)
  store i32 %141, ptr %6, align 4, !tbaa !53
  %142 = icmp slt i32 %141, 0
  br i1 %142, label %143, label %145

143:                                              ; preds = %135
  %144 = load i32, ptr %6, align 4, !tbaa !53
  store i32 %144, ptr %2, align 4
  store i32 1, ptr %7, align 4
  br label %149

145:                                              ; preds = %135
  br label %146

146:                                              ; preds = %145, %128, %121, %114
  %147 = load ptr, ptr %4, align 8, !tbaa !29
  %148 = getelementptr inbounds nuw %struct.MpegEncContext, ptr %147, i32 0, i32 72
  call void @ff_h263dsp_init(ptr noundef %148)
  call void @ff_h263_decode_init_vlc()
  store i32 0, ptr %2, align 4
  store i32 1, ptr %7, align 4
  br label %149

149:                                              ; preds = %146, %143, %78, %18
  call void @llvm.lifetime.end.p0(i64 4, ptr %6) #9
  call void @llvm.lifetime.end.p0(i64 48, ptr %5) #9
  call void @llvm.lifetime.end.p0(i64 8, ptr %4) #9
  %150 = load i32, ptr %2, align 4
  ret i32 %150
}