; Function Attrs: cold nounwind optsize uwtable
define range(i32 -2147483648, 1) i32 @ff_h263_decode_init(ptr noundef %0) #0 {
  %2 = alloca %struct.MPVUnquantDSPContext, align 8
  %3 = getelementptr inbounds nuw i8, ptr %0, i64 32
  %4 = load ptr, ptr %3, align 8, !tbaa !4
  call void @llvm.lifetime.start.p0(i64 48, ptr nonnull %2) #6
  %5 = getelementptr inbounds nuw i8, ptr %4, i64 496
  store i32 2, ptr %5, align 8, !tbaa !27
  %6 = tail call i32 @ff_mpv_decode_init(ptr noundef %4, ptr noundef %0) #6
  %7 = icmp slt i32 %6, 0
  br i1 %7, label %68, label %8

8:                                                ; preds = %1
  %9 = getelementptr inbounds nuw i8, ptr %4, i64 4304
  store ptr @ff_h263_decode_mb, ptr %9, align 8, !tbaa !50
  %10 = getelementptr inbounds nuw i8, ptr %4, i64 4104
  store i32 1, ptr %10, align 8, !tbaa !51
  %11 = getelementptr inbounds nuw i8, ptr %4, i64 1336
  store ptr @ff_mpeg12_dc_scale_table, ptr %11, align 8, !tbaa !52
  %12 = getelementptr inbounds nuw i8, ptr %4, i64 1328
  store ptr @ff_mpeg12_dc_scale_table, ptr %12, align 8, !tbaa !53
  %13 = getelementptr inbounds nuw i8, ptr %0, i64 64
  %14 = load i32, ptr %13, align 8, !tbaa !54
  %15 = and i32 %14, 8388608
  call void @ff_mpv_unquantize_init(ptr noundef nonnull %2, i32 noundef %15) #6
  %16 = getelementptr inbounds nuw i8, ptr %2, i64 32
  %17 = load ptr, ptr %16, align 8, !tbaa !55
  %18 = getelementptr inbounds nuw i8, ptr %4, i64 4312
  store ptr %17, ptr %18, align 8, !tbaa !57
  %19 = getelementptr inbounds nuw i8, ptr %2, i64 40
  %20 = load ptr, ptr %19, align 8, !tbaa !58
  %21 = getelementptr inbounds nuw i8, ptr %4, i64 4320
  store ptr %20, ptr %21, align 8, !tbaa !59
  %22 = getelementptr inbounds nuw i8, ptr %0, i64 16
  %23 = load ptr, ptr %22, align 8, !tbaa !60
  %24 = getelementptr inbounds nuw i8, ptr %23, i64 20
  %25 = load i32, ptr %24, align 4, !tbaa !61
  switch i32 %25, label %45 [
    i32 4, label %26
    i32 19, label %26
    i32 12, label %46
    i32 14, label %28
    i32 15, label %31
    i32 16, label %34
    i32 17, label %37
    i32 18, label %40
    i32 20, label %46
    i32 5, label %46
    i32 6, label %46
    i32 21, label %43
  ]

26:                                               ; preds = %8, %8
  %27 = getelementptr inbounds nuw i8, ptr %0, i64 160
  store i32 2, ptr %27, align 8, !tbaa !66
  br label %46

28:                                               ; preds = %8
  %29 = getelementptr inbounds nuw i8, ptr %4, i64 500
  store i32 1, ptr %29, align 4, !tbaa !67
  %30 = getelementptr inbounds nuw i8, ptr %4, i64 4148
  store i32 1, ptr %30, align 4, !tbaa !68
  br label %46

31:                                               ; preds = %8
  %32 = getelementptr inbounds nuw i8, ptr %4, i64 500
  store i32 1, ptr %32, align 4, !tbaa !67
  %33 = getelementptr inbounds nuw i8, ptr %4, i64 4148
  store i32 2, ptr %33, align 4, !tbaa !68
  br label %46

34:                                               ; preds = %8
  %35 = getelementptr inbounds nuw i8, ptr %4, i64 500
  store i32 1, ptr %35, align 4, !tbaa !67
  %36 = getelementptr inbounds nuw i8, ptr %4, i64 4148
  store i32 3, ptr %36, align 4, !tbaa !68
  br label %46

37:                                               ; preds = %8
  %38 = getelementptr inbounds nuw i8, ptr %4, i64 500
  store i32 1, ptr %38, align 4, !tbaa !67
  %39 = getelementptr inbounds nuw i8, ptr %4, i64 4148
  store i32 4, ptr %39, align 4, !tbaa !68
  br label %46

40:                                               ; preds = %8
  %41 = getelementptr inbounds nuw i8, ptr %4, i64 500
  store i32 1, ptr %41, align 4, !tbaa !67
  %42 = getelementptr inbounds nuw i8, ptr %4, i64 4148
  store i32 5, ptr %42, align 4, !tbaa !68
  br label %46

43:                                               ; preds = %8
  %44 = getelementptr inbounds nuw i8, ptr %4, i64 512
  store i32 1, ptr %44, align 8, !tbaa !69
  br label %46

45:                                               ; preds = %8
  call void (ptr, i32, ptr, ...) @av_log(ptr noundef nonnull %0, i32 noundef 16, ptr noundef nonnull @.str, i32 noundef %25) #6
  br label %68

46:                                               ; preds = %8, %8, %8, %43, %40, %37, %34, %31, %28, %26, %8
  %47 = getelementptr inbounds nuw i8, ptr %0, i64 28
  %48 = load i32, ptr %47, align 4, !tbaa !70
  switch i32 %48, label %60 [
    i32 859189836, label %49
    i32 859189843, label %49
  ]

49:                                               ; preds = %46, %46
  %50 = getelementptr inbounds nuw i8, ptr %0, i64 80
  %51 = load i32, ptr %50, align 8, !tbaa !71
  %52 = icmp eq i32 %51, 56
  br i1 %52, label %53, label %60

53:                                               ; preds = %49
  %54 = getelementptr inbounds nuw i8, ptr %0, i64 72
  %55 = load ptr, ptr %54, align 8, !tbaa !72
  %56 = load i8, ptr %55, align 1, !tbaa !73
  %57 = icmp eq i8 %56, 1
  br i1 %57, label %58, label %60

58:                                               ; preds = %53
  %59 = getelementptr inbounds nuw i8, ptr %4, i64 4012
  store i32 1, ptr %59, align 4, !tbaa !74
  br label %60

60:                                               ; preds = %46, %49, %53, %58
  switch i32 %25, label %61 [
    i32 4, label %66
    i32 19, label %66
    i32 12, label %66
  ]

61:                                               ; preds = %60
  %62 = call fastcc i32 @h263_get_format(ptr noundef nonnull %0)
  %63 = getelementptr inbounds nuw i8, ptr %0, i64 136
  store i32 %62, ptr %63, align 8, !tbaa !75
  %64 = call i32 @ff_mpv_common_init(ptr noundef nonnull %4) #6
  %65 = icmp slt i32 %64, 0
  br i1 %65, label %68, label %66

66:                                               ; preds = %60, %60, %60, %61
  %67 = getelementptr inbounds nuw i8, ptr %4, i64 2912
  call void @ff_h263dsp_init(ptr noundef nonnull %67) #6
  call void @ff_h263_decode_init_vlc() #6
  br label %68

68:                                               ; preds = %61, %1, %66, %45
  %.0 = phi i32 [ -38, %45 ], [ 0, %66 ], [ %6, %1 ], [ %64, %61 ]
  call void @llvm.lifetime.end.p0(i64 48, ptr nonnull %2) #6
  ret i32 %.0
}